# SymbolsHelper-Confirmed: 0.1.1 amd64
libqaccessibilityclient.so.0 libqaccessibilityclient0 #MINVER#
 (optional=templinst)_Z19qDBusMarshallHelperI5QListIN17QAccessibleClient10QSpiActionEEEvR13QDBusArgumentPKT_@Base 0+git20130108
 (optional=templinst)_Z19qDBusMarshallHelperI5QListIN17QAccessibleClient19QSpiObjectReferenceEEEvR13QDBusArgumentPKT_@Base 0+git20130108
 (optional=templinst)_Z19qDBusMarshallHelperIN17QAccessibleClient10QSpiActionEEvR13QDBusArgumentPKT_@Base 0+git20130108
 (optional=templinst)_Z19qDBusMarshallHelperIN17QAccessibleClient19QSpiObjectReferenceEEvR13QDBusArgumentPKT_@Base 0+git20130108
 (optional=templinst)_Z21qDBusDemarshallHelperI5QListIN17QAccessibleClient10QSpiActionEEEvRK13QDBusArgumentPT_@Base 0+git20130108
 (optional=templinst)_Z21qDBusDemarshallHelperI5QListIN17QAccessibleClient19QSpiObjectReferenceEEEvRK13QDBusArgumentPT_@Base 0+git20130108
 (optional=templinst)_Z21qDBusDemarshallHelperIN17QAccessibleClient10QSpiActionEEvRK13QDBusArgumentPT_@Base 0+git20130108
 (optional=templinst)_Z21qDBusDemarshallHelperIN17QAccessibleClient19QSpiObjectReferenceEEvRK13QDBusArgumentPT_@Base 0+git20130108
 (optional=templinst)_Z21qMetaTypeDeleteHelperI12QDBusVariantEvPT_@Base 0+git20130108
 (optional=templinst)_Z21qMetaTypeDeleteHelperI13QDBusArgumentEvPT_@Base 0+git20130108
 (optional=templinst)_Z21qMetaTypeDeleteHelperI5QListIN17QAccessibleClient10QSpiActionEEEvPT_@Base 0+git20130108
 (optional=templinst)_Z21qMetaTypeDeleteHelperI5QListIN17QAccessibleClient19QSpiObjectReferenceEEEvPT_@Base 0+git20130108
 (optional=templinst)_Z21qMetaTypeDeleteHelperI5QListIjEEvPT_@Base 0+git20130108
 (optional=templinst)_Z21qMetaTypeDeleteHelperIN17QAccessibleClient10QSpiActionEEvPT_@Base 0+git20130108
 (optional=templinst)_Z21qMetaTypeDeleteHelperIN17QAccessibleClient19QSpiObjectReferenceEEvPT_@Base 0+git20130108
 (optional=templinst)_Z24qMetaTypeConstructHelperI12QDBusVariantEPvPKT_@Base 0+git20130108
 (optional=templinst)_Z24qMetaTypeConstructHelperI13QDBusArgumentEPvPKT_@Base 0+git20130108
 (optional=templinst)_Z24qMetaTypeConstructHelperI5QListIN17QAccessibleClient10QSpiActionEEEPvPKT_@Base 0+git20130108
 (optional=templinst)_Z24qMetaTypeConstructHelperI5QListIN17QAccessibleClient19QSpiObjectReferenceEEEPvPKT_@Base 0+git20130108
 (optional=templinst)_Z24qMetaTypeConstructHelperI5QListIjEEPvPKT_@Base 0+git20130108
 (optional=templinst)_Z24qMetaTypeConstructHelperIN17QAccessibleClient10QSpiActionEEPvPKT_@Base 0+git20130108
 (optional=templinst)_Z24qMetaTypeConstructHelperIN17QAccessibleClient19QSpiObjectReferenceEEPvPKT_@Base 0+git20130108
 _Z5qHashRKN17QAccessibleClient16AccessibleObjectE@Base 0+git20130108
 _ZN10QByteArrayD1Ev@Base 0+git20130108
 _ZN10QByteArrayD2Ev@Base 0+git20130108
 _ZN10QDBusErrorD1Ev@Base 0+git20130108
 _ZN10QDBusErrorD2Ev@Base 0+git20130108
 (optional=templinst)_ZN10QDBusReplyI11QStringListED1Ev@Base 0+git20130108
 (optional=templinst)_ZN10QDBusReplyI11QStringListED2Ev@Base 0+git20130108
 (optional=templinst)_ZN10QDBusReplyI5QListIN17QAccessibleClient10QSpiActionEEED1Ev@Base 0+git20130108
 (optional=templinst)_ZN10QDBusReplyI5QListIN17QAccessibleClient10QSpiActionEEED2Ev@Base 0+git20130108
 (optional=templinst)_ZN10QDBusReplyI5QListIN17QAccessibleClient19QSpiObjectReferenceEEED1Ev@Base 0+git20130108
 (optional=templinst)_ZN10QDBusReplyI5QListIN17QAccessibleClient19QSpiObjectReferenceEEED2Ev@Base 0+git20130108
 (optional=templinst)_ZN10QDBusReplyI5QListIjEED1Ev@Base 0+git20130108
 (optional=templinst)_ZN10QDBusReplyI5QListIjEED2Ev@Base 0+git20130108
 (optional=templinst)_ZN10QDBusReplyI7QStringED1Ev@Base 0+git20130108
 (optional=templinst)_ZN10QDBusReplyI7QStringED2Ev@Base 0+git20130108
 (optional=templinst)_ZN10QDBusReplyI8QVariantED1Ev@Base 0+git20130108
 (optional=templinst)_ZN10QDBusReplyI8QVariantED2Ev@Base 0+git20130108
 (optional=templinst)_ZN10QDBusReplyIN17QAccessibleClient19QSpiObjectReferenceEED1Ev@Base 0+git20130108
 (optional=templinst)_ZN10QDBusReplyIN17QAccessibleClient19QSpiObjectReferenceEED2Ev@Base 0+git20130108
 (optional=templinst)_ZN10QDBusReplyIiEC1ERK12QDBusMessage@Base 0+git20130108
 (optional=templinst)_ZN10QDBusReplyIiEC2ERK12QDBusMessage@Base 0+git20130108
 (optional=templinst)_ZN11QMetaTypeIdI5QListIN17QAccessibleClient10QSpiActionEEE14qt_metatype_idEv@Base 0+git20130108
 (optional=templinst)_ZN12QWeakPointerIN17QAccessibleClient23AccessibleObjectPrivateEED1Ev@Base 0+git20130108
 (optional=templinst)_ZN12QWeakPointerIN17QAccessibleClient23AccessibleObjectPrivateEED2Ev@Base 0+git20130108
 (optional=templinst)_ZN15QtSharedPointer16ExternalRefCountI7QActionE5derefEPNS_20ExternalRefCountDataEPS1_@Base 0+git20130108
 (optional=templinst)_ZN15QtSharedPointer16ExternalRefCountIN17QAccessibleClient23AccessibleObjectPrivateEE5derefEPNS_20ExternalRefCountDataEPS2_@Base 0+git20130108
 _ZN15QtSharedPointer20ExternalRefCountData7destroyEv@Base 0+git20130108
 _ZN15QtSharedPointer20ExternalRefCountDataD0Ev@Base 0+git20130108
 _ZN15QtSharedPointer20ExternalRefCountDataD1Ev@Base 0+git20130108
 _ZN15QtSharedPointer20ExternalRefCountDataD2Ev@Base 0+git20130108
 _ZN17QAccessibleClient10QSpiActionD1Ev@Base 0+git20130108
 _ZN17QAccessibleClient10QSpiActionD2Ev@Base 0+git20130108
 _ZN17QAccessibleClient14DBusConnection11qt_metacallEN11QMetaObject4CallEiPPv@Base 0+git20130108
 _ZN17QAccessibleClient14DBusConnection11qt_metacastEPKc@Base 0+git20130108
 _ZN17QAccessibleClient14DBusConnection12initFinishedEv@Base 0+git20130108
 _ZN17QAccessibleClient14DBusConnection16staticMetaObjectE@Base 0+git20130108
 _ZN17QAccessibleClient14DBusConnection17connectionFetchedEv@Base 0+git20130108
 _ZN17QAccessibleClient14DBusConnection4initEv@Base 0+git20130108
 _ZN17QAccessibleClient14DBusConnectionC1Ev@Base 0+git20130108
 _ZN17QAccessibleClient14DBusConnectionC2Ev@Base 0+git20130108
 _ZN17QAccessibleClient14DBusConnectionD0Ev@Base 0+git20130108
 _ZN17QAccessibleClient14DBusConnectionD1Ev@Base 0+git20130108
 _ZN17QAccessibleClient14DBusConnectionD2Ev@Base 0+git20130108
 _ZN17QAccessibleClient15RegistryPrivate10deleteTextERKNS_16AccessibleObjectEii@Base 0+git20130108
 _ZN17QAccessibleClient15RegistryPrivate10insertTextERKNS_16AccessibleObjectERK7QStringii@Base 0+git20130108
 _ZN17QAccessibleClient15RegistryPrivate10setEnabledEb@Base 0+git20130108
 _ZN17QAccessibleClient15RegistryPrivate11qt_metacallEN11QMetaObject4CallEiPPv@Base 0+git20130108
 _ZN17QAccessibleClient15RegistryPrivate11qt_metacastEPKc@Base 0+git20130108
 _ZN17QAccessibleClient15RegistryPrivate14slotWindowMoveERK7QStringiiRK12QDBusVariantRKNS_19QSpiObjectReferenceE@Base 0+git20130108
 _ZN17QAccessibleClient15RegistryPrivate15actionTriggeredERK7QString@Base 0+git20130108
 _ZN17QAccessibleClient15RegistryPrivate15atspiRoleToRoleE9AtspiRole@Base 0+git20130108
 _ZN17QAccessibleClient15RegistryPrivate15slotTextChangedERK7QStringiiRK12QDBusVariantRKNS_19QSpiObjectReferenceE@Base 0+git20130108
 _ZN17QAccessibleClient15RegistryPrivate15slotWindowCloseERK7QStringiiRK12QDBusVariantRKNS_19QSpiObjectReferenceE@Base 0+git20130108
 _ZN17QAccessibleClient15RegistryPrivate15slotWindowLowerERK7QStringiiRK12QDBusVariantRKNS_19QSpiObjectReferenceE@Base 0+git20130108
 _ZN17QAccessibleClient15RegistryPrivate15slotWindowRaiseERK7QStringiiRK12QDBusVariantRKNS_19QSpiObjectReferenceE@Base 0+git20130108
 _ZN17QAccessibleClient15RegistryPrivate15slotWindowShadeERK7QStringiiRK12QDBusVariantRKNS_19QSpiObjectReferenceE@Base 0+git20130108
 _ZN17QAccessibleClient15RegistryPrivate16slotModelChangedERK7QStringiiRK12QDBusVariantRKNS_19QSpiObjectReferenceE@Base 0+git20130108
 _ZN17QAccessibleClient15RegistryPrivate16slotStateChangedERK7QStringiiRK12QDBusVariantRKNS_19QSpiObjectReferenceE@Base 0+git20130108
 _ZN17QAccessibleClient15RegistryPrivate16slotWindowCreateERK7QStringiiRK12QDBusVariantRKNS_19QSpiObjectReferenceE@Base 0+git20130108
 _ZN17QAccessibleClient15RegistryPrivate16slotWindowResizeERK7QStringiiRK12QDBusVariantRKNS_19QSpiObjectReferenceE@Base 0+git20130108
 _ZN17QAccessibleClient15RegistryPrivate16staticMetaObjectE@Base 0+git20130108
 _ZN17QAccessibleClient15RegistryPrivate17connectionFetchedEv@Base 0+git20130108
 _ZN17QAccessibleClient15RegistryPrivate17setTextSelectionsERKNS_16AccessibleObjectERK5QListI5QPairIiiEE@Base 0+git20130108
 _ZN17QAccessibleClient15RegistryPrivate17slotWindowDestroyERK7QStringiiRK12QDBusVariantRKNS_19QSpiObjectReferenceE@Base 0+git20130108
 _ZN17QAccessibleClient15RegistryPrivate17slotWindowRestoreERK7QStringiiRK12QDBusVariantRKNS_19QSpiObjectReferenceE@Base 0+git20130108
 _ZN17QAccessibleClient15RegistryPrivate17slotWindowUnshadeERK7QStringiiRK12QDBusVariantRKNS_19QSpiObjectReferenceE@Base 0+git20130108
 _ZN17QAccessibleClient15RegistryPrivate18slotPropertyChangeERK7QStringiiRK12QDBusVariantRKNS_19QSpiObjectReferenceE@Base 0+git20130108
 _ZN17QAccessibleClient15RegistryPrivate18slotTextCaretMovedERK7QStringiiRK12QDBusVariantRKNS_19QSpiObjectReferenceE@Base 0+git20130108
 _ZN17QAccessibleClient15RegistryPrivate18slotWindowActivateERK7QStringiiRK12QDBusVariantRKNS_19QSpiObjectReferenceE@Base 0+git20130108
 _ZN17QAccessibleClient15RegistryPrivate18slotWindowMaximizeERK7QStringiiRK12QDBusVariantRKNS_19QSpiObjectReferenceE@Base 0+git20130108
 _ZN17QAccessibleClient15RegistryPrivate18slotWindowMinimizeERK7QStringiiRK12QDBusVariantRKNS_19QSpiObjectReferenceE@Base 0+git20130108
 _ZN17QAccessibleClient15RegistryPrivate18slotWindowReparentERK7QStringiiRK12QDBusVariantRKNS_19QSpiObjectReferenceE@Base 0+git20130108
 _ZN17QAccessibleClient15RegistryPrivate19slotChildrenChangedERK7QStringiiRK12QDBusVariantRKNS_19QSpiObjectReferenceE@Base 0+git20130108
 _ZN17QAccessibleClient15RegistryPrivate20slotSelectionChangedERK7QStringiiRK12QDBusVariantRKNS_19QSpiObjectReferenceE@Base 0+git20130108
 _ZN17QAccessibleClient15RegistryPrivate20slotWindowDeactivateERK7QStringiiRK12QDBusVariantRKNS_19QSpiObjectReferenceE@Base 0+git20130108
 _ZN17QAccessibleClient15RegistryPrivate21a11yConnectionChangedERK7QStringRK4QMapIS1_8QVariantERK11QStringList@Base 0+git20130108
 _ZN17QAccessibleClient15RegistryPrivate22removeAccessibleObjectERKNS_16AccessibleObjectE@Base 0+git20130108
 _ZN17QAccessibleClient15RegistryPrivate22removeAccessibleObjectERKNS_19QSpiObjectReferenceE@Base 0+git20130108
 _ZN17QAccessibleClient15RegistryPrivate22setScreenReaderEnabledEb@Base 0+git20130108
 _ZN17QAccessibleClient15RegistryPrivate22slotVisibleDataChangedERK7QStringiiRK12QDBusVariantRKNS_19QSpiObjectReferenceE@Base 0+git20130108
 _ZN17QAccessibleClient15RegistryPrivate23slotWindowDesktopCreateERK7QStringiiRK12QDBusVariantRKNS_19QSpiObjectReferenceE@Base 0+git20130108
 _ZN17QAccessibleClient15RegistryPrivate23subscribeEventListenersERK6QFlagsINS_8Registry13EventListenerEE@Base 0+git20130108
 _ZN17QAccessibleClient15RegistryPrivate24slotTextSelectionChangedERK7QStringiiRK12QDBusVariantRKNS_19QSpiObjectReferenceE@Base 0+git20130108
 _ZN17QAccessibleClient15RegistryPrivate24slotWindowDesktopDestroyERK7QStringiiRK12QDBusVariantRKNS_19QSpiObjectReferenceE@Base 0+git20130108
 _ZN17QAccessibleClient15RegistryPrivate31ACCESSIBLE_OBJECT_SCHEME_STRINGE@Base 0+git20130108
 _ZN17QAccessibleClient15RegistryPrivate34slotSubscribeEventListenerFinishedEP23QDBusPendingCallWatcher@Base 0+git20130108
 _ZN17QAccessibleClient15RegistryPrivate4initEv@Base 0+git20130108
 _ZN17QAccessibleClient15RegistryPrivate7actionsERKNS_16AccessibleObjectE@Base 0+git20130108
 _ZN17QAccessibleClient15RegistryPrivate7cutTextERKNS_16AccessibleObjectEii@Base 0+git20130108
 _ZN17QAccessibleClient15RegistryPrivate7setTextERKNS_16AccessibleObjectERK7QString@Base 0+git20130108
 _ZN17QAccessibleClient15RegistryPrivate8copyTextERKNS_16AccessibleObjectEii@Base 0+git20130108
 _ZN17QAccessibleClient15RegistryPrivate9pasteTextERKNS_16AccessibleObjectEi@Base 0+git20130108
 _ZN17QAccessibleClient15RegistryPrivateC1EPNS_8RegistryE@Base 0+git20130108
 _ZN17QAccessibleClient15RegistryPrivateC2EPNS_8RegistryE@Base 0+git20130108
 _ZN17QAccessibleClient15RegistryPrivateD0Ev@Base 0+git20130108
 _ZN17QAccessibleClient15RegistryPrivateD1Ev@Base 0+git20130108
 _ZN17QAccessibleClient15RegistryPrivateD2Ev@Base 0+git20130108
 _ZN17QAccessibleClient16AccessibleObject10deleteTextEii@Base 0+git20130108
 _ZN17QAccessibleClient16AccessibleObject10insertTextERK7QStringii@Base 0+git20130108
 _ZN17QAccessibleClient16AccessibleObject17setTextSelectionsERK5QListI5QPairIiiEE@Base 0+git20130108
 _ZN17QAccessibleClient16AccessibleObject7cutTextEii@Base 0+git20130108
 _ZN17QAccessibleClient16AccessibleObject7setTextERK7QString@Base 0+git20130108
 _ZN17QAccessibleClient16AccessibleObject8copyTextEii@Base 0+git20130108
 _ZN17QAccessibleClient16AccessibleObject9pasteTextEi@Base 0+git20130108
 _ZN17QAccessibleClient16AccessibleObjectC1EPNS_15RegistryPrivateERK7QStringS5_@Base 0+git20130108
 _ZN17QAccessibleClient16AccessibleObjectC1ERK14QSharedPointerINS_23AccessibleObjectPrivateEE@Base 0+git20130108
 _ZN17QAccessibleClient16AccessibleObjectC1ERKS0_@Base 0+git20130108
 _ZN17QAccessibleClient16AccessibleObjectC1Ev@Base 0+git20130108
 _ZN17QAccessibleClient16AccessibleObjectC2EPNS_15RegistryPrivateERK7QStringS5_@Base 0+git20130108
 _ZN17QAccessibleClient16AccessibleObjectC2ERK14QSharedPointerINS_23AccessibleObjectPrivateEE@Base 0+git20130108
 _ZN17QAccessibleClient16AccessibleObjectC2ERKS0_@Base 0+git20130108
 _ZN17QAccessibleClient16AccessibleObjectC2Ev@Base 0+git20130108
 _ZN17QAccessibleClient16AccessibleObjectD1Ev@Base 0+git20130108
 _ZN17QAccessibleClient16AccessibleObjectD2Ev@Base 0+git20130108
 _ZN17QAccessibleClient16AccessibleObjectaSERKS0_@Base 0+git20130108
 _ZN17QAccessibleClient17CacheWeakStrategy10interfacesERKNS_16AccessibleObjectE@Base 0+git20140203
 _ZN17QAccessibleClient17CacheWeakStrategy13setInterfacesERKNS_16AccessibleObjectE6QFlagsINS1_9InterfaceEE@Base 0+git20140203
 _ZN17QAccessibleClient17CacheWeakStrategy3addERK7QStringRK14QSharedPointerINS_23AccessibleObjectPrivateEE@Base 0+git20130108
 _ZN17QAccessibleClient17CacheWeakStrategy5clearEv@Base 0+git20130108
 _ZN17QAccessibleClient17CacheWeakStrategy6removeERK7QString@Base 0+git20130108
 _ZN17QAccessibleClient17registerDBusTypesEv@Base 0+git20130108
 _ZN17QAccessibleClient19CacheStrongStrategy10interfacesERKNS_16AccessibleObjectE@Base 0+git20140203
 _ZN17QAccessibleClient19CacheStrongStrategy13setInterfacesERKNS_16AccessibleObjectE6QFlagsINS1_9InterfaceEE@Base 0+git20140203
 _ZN17QAccessibleClient19CacheStrongStrategy3addERK7QStringRK14QSharedPointerINS_23AccessibleObjectPrivateEE@Base 0+git20130108
 _ZN17QAccessibleClient19CacheStrongStrategy5clearEv@Base 0+git20130108
 _ZN17QAccessibleClient19CacheStrongStrategy6removeERK7QString@Base 0+git20130108
 _ZN17QAccessibleClient19QSpiObjectReferenceD1Ev@Base 0+git20130108
 _ZN17QAccessibleClient19QSpiObjectReferenceD2Ev@Base 0+git20130108
 _ZN17QAccessibleClient23AccessibleObjectPrivate10setDefunctEv@Base 0+git20130108
 _ZN17QAccessibleClient23AccessibleObjectPrivateC1EPNS_15RegistryPrivateERK7QStringS5_@Base 0+git20130108
 _ZN17QAccessibleClient23AccessibleObjectPrivateC2EPNS_15RegistryPrivateERK7QStringS5_@Base 0+git20130108
 _ZN17QAccessibleClient23AccessibleObjectPrivateD1Ev@Base 0+git20130108
 _ZN17QAccessibleClient23AccessibleObjectPrivateD2Ev@Base 0+git20130108
 _ZN17QAccessibleClient8Registry10childAddedERKNS_16AccessibleObjectEi@Base 0+git20130108
 _ZN17QAccessibleClient8Registry10setEnabledEb@Base 0+git20130108
 _ZN17QAccessibleClient8Registry11qt_metacallEN11QMetaObject4CallEiPPv@Base 0+git20130108
 _ZN17QAccessibleClient8Registry11qt_metacastEPKc@Base 0+git20130108
 _ZN17QAccessibleClient8Registry11textChangedERKNS_16AccessibleObjectERK7QStringii@Base 0+git20130108
 _ZN17QAccessibleClient8Registry11textRemovedERKNS_16AccessibleObjectERK7QStringii@Base 0+git20130108
 _ZN17QAccessibleClient8Registry11windowMovedERKNS_16AccessibleObjectE@Base 0+git20130108
 _ZN17QAccessibleClient8Registry12childRemovedERKNS_16AccessibleObjectEi@Base 0+git20130108
 _ZN17QAccessibleClient8Registry12focusChangedERKNS_16AccessibleObjectE@Base 0+git20130108
 _ZN17QAccessibleClient8Registry12modelChangedERKNS_16AccessibleObjectE@Base 0+git20130108
 _ZN17QAccessibleClient8Registry12setCacheTypeENS0_9CacheTypeE@Base 0+git20130108
 _ZN17QAccessibleClient8Registry12stateChangedERKNS_16AccessibleObjectERK7QStringb@Base 0+git20130108
 _ZN17QAccessibleClient8Registry12textInsertedERKNS_16AccessibleObjectERK7QStringii@Base 0+git20130108
 _ZN17QAccessibleClient8Registry12windowClosedERKNS_16AccessibleObjectE@Base 0+git20130108
 _ZN17QAccessibleClient8Registry12windowRaisedERKNS_16AccessibleObjectE@Base 0+git20130108
 _ZN17QAccessibleClient8Registry12windowShadedERKNS_16AccessibleObjectE@Base 0+git20130108
 _ZN17QAccessibleClient8Registry13windowCreatedERKNS_16AccessibleObjectE@Base 0+git20130108
 _ZN17QAccessibleClient8Registry13windowLoweredERKNS_16AccessibleObjectE@Base 0+git20130108
 _ZN17QAccessibleClient8Registry13windowResizedERKNS_16AccessibleObjectE@Base 0+git20130108
 _ZN17QAccessibleClient8Registry14enabledChangedEb@Base 0+git20130108
 _ZN17QAccessibleClient8Registry14textCaretMovedERKNS_16AccessibleObjectEi@Base 0+git20130108
 _ZN17QAccessibleClient8Registry14windowRestoredERKNS_16AccessibleObjectE@Base 0+git20130108
 _ZN17QAccessibleClient8Registry14windowUnshadedERKNS_16AccessibleObjectE@Base 0+git20130108
 _ZN17QAccessibleClient8Registry15windowActivatedERKNS_16AccessibleObjectE@Base 0+git20130108
 _ZN17QAccessibleClient8Registry15windowDestroyedERKNS_16AccessibleObjectE@Base 0+git20130108
 _ZN17QAccessibleClient8Registry15windowMaximizedERKNS_16AccessibleObjectE@Base 0+git20130108
 _ZN17QAccessibleClient8Registry15windowMinimizedERKNS_16AccessibleObjectE@Base 0+git20130108
 _ZN17QAccessibleClient8Registry16clearClientCacheEv@Base 0+git20130108
 _ZN17QAccessibleClient8Registry16selectionChangedERKNS_16AccessibleObjectE@Base 0+git20130108
 _ZN17QAccessibleClient8Registry16staticMetaObjectE@Base 0+git20130108
 _ZN17QAccessibleClient8Registry16windowReparentedERKNS_16AccessibleObjectE@Base 0+git20130108
 _ZN17QAccessibleClient8Registry17windowDeactivatedERKNS_16AccessibleObjectE@Base 0+git20130108
 _ZN17QAccessibleClient8Registry18visibleDataChangedERKNS_16AccessibleObjectE@Base 0+git20130108
 _ZN17QAccessibleClient8Registry20textSelectionChangedERKNS_16AccessibleObjectE@Base 0+git20130108
 _ZN17QAccessibleClient8Registry20windowDesktopCreatedERKNS_16AccessibleObjectE@Base 0+git20130108
 _ZN17QAccessibleClient8Registry21accessibleNameChangedERKNS_16AccessibleObjectE@Base 0+git20130108
 _ZN17QAccessibleClient8Registry22setScreenReaderEnabledEb@Base 0+git20130108
 _ZN17QAccessibleClient8Registry22windowDesktopDestroyedERKNS_16AccessibleObjectE@Base 0+git20130108
 _ZN17QAccessibleClient8Registry26screenReaderEnabledChangedEb@Base 0+git20130108
 _ZN17QAccessibleClient8Registry28accessibleDescriptionChangedERKNS_16AccessibleObjectE@Base 0+git20130108
 _ZN17QAccessibleClient8Registry5addedERKNS_16AccessibleObjectE@Base 0+git20130108
 _ZN17QAccessibleClient8Registry7defunctERKNS_16AccessibleObjectE@Base 0+git20130108
 _ZN17QAccessibleClient8Registry7removedERKNS_16AccessibleObjectE@Base 0+git20130108
 _ZN17QAccessibleClient8RegistryC1EP7QObject@Base 0+git20130108
 _ZN17QAccessibleClient8RegistryC2EP7QObject@Base 0+git20130108
 _ZN17QAccessibleClient8RegistryD0Ev@Base 0+git20130108
 _ZN17QAccessibleClient8RegistryD1Ev@Base 0+git20130108
 _ZN17QAccessibleClient8RegistryD2Ev@Base 0+git20130108
 _ZN17QAccessibleClientlsE6QDebugRKNS_16AccessibleObjectE@Base 0+git20130108
 _ZN17QAccessibleClientlsER13QDBusArgumentRKNS_10QSpiActionE@Base 0+git20130108
 _ZN17QAccessibleClientlsER13QDBusArgumentRKNS_19QSpiObjectReferenceE@Base 0+git20130108
 _ZN17QAccessibleClientrsERK13QDBusArgumentRNS_10QSpiActionE@Base 0+git20130108
 _ZN17QAccessibleClientrsERK13QDBusArgumentRNS_19QSpiObjectReferenceE@Base 0+git20130108
 (optional=templinst)_ZN5QHashI7QString12QWeakPointerIN17QAccessibleClient23AccessibleObjectPrivateEEE11deleteNode2EPN9QHashData4NodeE@Base 0+git20140203
 (optional=templinst)_ZN5QHashI7QString12QWeakPointerIN17QAccessibleClient23AccessibleObjectPrivateEEE13detach_helperEv@Base 0+git20140203
 (optional=templinst)_ZN5QHashI7QString12QWeakPointerIN17QAccessibleClient23AccessibleObjectPrivateEEE13duplicateNodeEPN9QHashData4NodeEPv@Base 0+git20140203
 (optional=templinst)_ZN5QHashI7QString12QWeakPointerIN17QAccessibleClient23AccessibleObjectPrivateEEE4takeERKS0_@Base 0+git20140203
 (optional=templinst)_ZN5QHashI7QString14QSharedPointerIN17QAccessibleClient23AccessibleObjectPrivateEEE11deleteNode2EPN9QHashData4NodeE@Base 0+git20140203
 (optional=templinst)_ZN5QHashI7QString14QSharedPointerIN17QAccessibleClient23AccessibleObjectPrivateEEE13detach_helperEv@Base 0+git20140203
 (optional=templinst)_ZN5QHashI7QString14QSharedPointerIN17QAccessibleClient23AccessibleObjectPrivateEEE13duplicateNodeEPN9QHashData4NodeEPv@Base 0+git20140203
 (optional=templinst)_ZN5QHashI7QString14QSharedPointerIN17QAccessibleClient23AccessibleObjectPrivateEEE4takeERKS0_@Base 0+git20140203
 (optional=templinst)_ZN5QHashI7QStringN17QAccessibleClient16AccessibleObject9InterfaceEE11deleteNode2EPN9QHashData4NodeE@Base 0+git20130108
 (optional=templinst)_ZN5QHashI7QStringN17QAccessibleClient16AccessibleObject9InterfaceEE13duplicateNodeEPN9QHashData4NodeEPv@Base 0+git20130108
 (optional=templinst)_ZN5QHashI7QStringN17QAccessibleClient16AccessibleObject9InterfaceEEixERKS0_@Base 0+git20130108
 (optional=templinst)_ZN5QHashIPN17QAccessibleClient23AccessibleObjectPrivateE6QFlagsINS0_16AccessibleObject9InterfaceEEE11deleteNode2EPN9QHashData4NodeE@Base 0+git20140203
 (optional=templinst)_ZN5QHashIPN17QAccessibleClient23AccessibleObjectPrivateE6QFlagsINS0_16AccessibleObject9InterfaceEEE13detach_helperEv@Base 0+git20140203
 (optional=templinst)_ZN5QHashIPN17QAccessibleClient23AccessibleObjectPrivateE6QFlagsINS0_16AccessibleObject9InterfaceEEE13duplicateNodeEPN9QHashData4NodeEPv@Base 0+git20140203
 (optional=templinst)_ZN5QHashIPN17QAccessibleClient23AccessibleObjectPrivateE6QFlagsINS0_16AccessibleObject9InterfaceEEE6removeERKS2_@Base 0+git20140203
 (optional=templinst)_ZN5QListI5QPairIiiEE18detach_helper_growEii@Base 0+git20130108
 (optional=templinst)_ZN5QListI5QPairIiiEE6appendERKS1_@Base 0+git20130108
 (optional=templinst)_ZN5QListI7QStringE13detach_helperEi@Base 0+git20130108
 (optional=templinst)_ZN5QListI7QStringE18detach_helper_growEii@Base 0+git20130108
 (optional=templinst)_ZN5QListI7QStringE6appendERKS0_@Base 0+git20130108
 (optional=templinst)_ZN5QListI7QStringE7reserveEi@Base 0+git20130108
 (optional=templinst)_ZN5QListI7QStringEC1ERKS1_@Base 0+git20130108
 (optional=templinst)_ZN5QListI7QStringEC2ERKS1_@Base 0+git20130108
 (optional=templinst)_ZN5QListI7QStringED1Ev@Base 0+git20130108
 (optional=templinst)_ZN5QListI7QStringED2Ev@Base 0+git20130108
 (optional=templinst)_ZN5QListI8QVariantE13detach_helperEi@Base 0+git20130108
 (optional=templinst)_ZN5QListI8QVariantE18detach_helper_growEii@Base 0+git20130108
 (optional=templinst)_ZN5QListI8QVariantE6appendERKS0_@Base 0+git20130108
 (optional=templinst)_ZN5QListI8QVariantE9node_copyEPNS1_4NodeES3_S3_@Base 0.1.1
 (optional=templinst)_ZN5QListI8QVariantED1Ev@Base 0+git20130108
 (optional=templinst)_ZN5QListI8QVariantED2Ev@Base 0+git20130108
 (optional=templinst)_ZN5QListIN17QAccessibleClient10QSpiActionEE13detach_helperEi@Base 0+git20130108
 (optional=templinst)_ZN5QListIN17QAccessibleClient10QSpiActionEE18detach_helper_growEii@Base 0+git20130108
 (optional=templinst)_ZN5QListIN17QAccessibleClient10QSpiActionEE5clearEv@Base 0+git20130108
 (optional=templinst)_ZN5QListIN17QAccessibleClient10QSpiActionEE6appendERKS1_@Base 0+git20130108
 (optional=templinst)_ZN5QListIN17QAccessibleClient10QSpiActionEEC1ERKS2_@Base 0+git20130108
 (optional=templinst)_ZN5QListIN17QAccessibleClient10QSpiActionEEC2ERKS2_@Base 0+git20130108
 (optional=templinst)_ZN5QListIN17QAccessibleClient10QSpiActionEED1Ev@Base 0+git20130108
 (optional=templinst)_ZN5QListIN17QAccessibleClient10QSpiActionEED2Ev@Base 0+git20130108
 (optional=templinst)_ZN5QListIN17QAccessibleClient16AccessibleObjectEE13detach_helperEi@Base 0+git20130108
 (optional=templinst)_ZN5QListIN17QAccessibleClient16AccessibleObjectEE18detach_helper_growEii@Base 0+git20130108
 (optional=templinst)_ZN5QListIN17QAccessibleClient16AccessibleObjectEE6appendERKS1_@Base 0+git20130108
 (optional=templinst)_ZN5QListIN17QAccessibleClient16AccessibleObjectEE9node_copyEPNS2_4NodeES4_S4_@Base 0.1.1
 (optional=templinst)_ZN5QListIN17QAccessibleClient16AccessibleObjectEED1Ev@Base 0+git20130108
 (optional=templinst)_ZN5QListIN17QAccessibleClient16AccessibleObjectEED2Ev@Base 0+git20130108
 (optional=templinst)_ZN5QListIN17QAccessibleClient19QSpiObjectReferenceEE13detach_helperEi@Base 0+git20130108
 (optional=templinst)_ZN5QListIN17QAccessibleClient19QSpiObjectReferenceEE18detach_helper_growEii@Base 0+git20130108
 (optional=templinst)_ZN5QListIN17QAccessibleClient19QSpiObjectReferenceEE5clearEv@Base 0+git20130108
 (optional=templinst)_ZN5QListIN17QAccessibleClient19QSpiObjectReferenceEE6appendERKS1_@Base 0+git20130108
 (optional=templinst)_ZN5QListIN17QAccessibleClient19QSpiObjectReferenceEED1Ev@Base 0+git20130108
 (optional=templinst)_ZN5QListIN17QAccessibleClient19QSpiObjectReferenceEED2Ev@Base 0+git20130108
 (optional=templinst)_ZN5QListIjE13detach_helperEi@Base 0+git20130108
 (optional=templinst)_ZN5QListIjED1Ev@Base 0+git20130108
 (optional=templinst)_ZN5QListIjED2Ev@Base 0+git20130108
 _ZN6QDebugC1E9QtMsgType@Base 0+git20130108
 _ZN6QDebugC2E9QtMsgType@Base 0+git20130108
 _ZN6QDebugD1Ev@Base 0+git20130108
 _ZN6QDebugD2Ev@Base 0+git20130108
 _ZN6QDebuglsEPKc@Base 0+git20130108
 _ZN6QDebuglsERK7QString@Base 0+git20130108
 _ZN6QDebuglsEb@Base 0+git20130108
 _ZN7QStringD1Ev@Base 0+git20130108
 _ZN7QStringD2Ev@Base 0+git20130108
 (optional=templinst)_ZN7QVectorI14QSharedPointerI7QActionEE6appendERKS2_@Base 0+git20130108
 (optional=templinst)_ZN7QVectorI14QSharedPointerI7QActionEE7reallocEii@Base 0+git20130108
 (optional=templinst)_ZN7QVectorI5QListIN17QAccessibleClient16AccessibleObjectEEE7reallocEii@Base 0+git20130108
 _ZNK17QAccessibleClient14DBusConnection10connectionEv@Base 0+git20130108
 _ZNK17QAccessibleClient14DBusConnection10metaObjectEv@Base 0+git20130108
 _ZNK17QAccessibleClient14DBusConnection20isFetchingConnectionEv@Base 0+git20130108
 _ZNK17QAccessibleClient14DBusConnection6statusEv@Base 0+git20130108
 _ZNK17QAccessibleClient15RegistryPrivate10appVersionERKNS_16AccessibleObjectE@Base 0+git20130108
 _ZNK17QAccessibleClient15RegistryPrivate10childCountERKNS_16AccessibleObjectE@Base 0+git20130108
 _ZNK17QAccessibleClient15RegistryPrivate10metaObjectEv@Base 0+git20130108
 _ZNK17QAccessibleClient15RegistryPrivate11applicationERKNS_16AccessibleObjectE@Base 0+git20130108
 _ZNK17QAccessibleClient15RegistryPrivate11caretOffsetERKNS_16AccessibleObjectE@Base 0+git20130108
 _ZNK17QAccessibleClient15RegistryPrivate11descriptionERKNS_16AccessibleObjectE@Base 0+git20130108
 _ZNK17QAccessibleClient15RegistryPrivate11getPropertyERK7QStringS3_S3_S3_@Base 0+git20130108
 _ZNK17QAccessibleClient15RegistryPrivate11imageLocaleERKNS_16AccessibleObjectE@Base 0+git20130108
 _ZNK17QAccessibleClient15RegistryPrivate12boundingRectERKNS_16AccessibleObjectE@Base 0+git20130108
 _ZNK17QAccessibleClient15RegistryPrivate12currentValueERKNS_16AccessibleObjectE@Base 0+git20130108
 _ZNK17QAccessibleClient15RegistryPrivate12maximumValueERKNS_16AccessibleObjectE@Base 0+git20130108
 _ZNK17QAccessibleClient15RegistryPrivate12minimumValueERKNS_16AccessibleObjectE@Base 0+git20130108
 _ZNK17QAccessibleClient15RegistryPrivate13appBusAddressERKNS_16AccessibleObjectE@Base 0+git20130108
 _ZNK17QAccessibleClient15RegistryPrivate13characterRectERKNS_16AccessibleObjectEi@Base 0+git20130108
 _ZNK17QAccessibleClient15RegistryPrivate13indexInParentERKNS_16AccessibleObjectE@Base 0+git20130108
 _ZNK17QAccessibleClient15RegistryPrivate14appToolkitNameERKNS_16AccessibleObjectE@Base 0+git20130108
 _ZNK17QAccessibleClient15RegistryPrivate14characterCountERKNS_16AccessibleObjectE@Base 0+git20130108
 _ZNK17QAccessibleClient15RegistryPrivate14eventListenersEv@Base 0+git20130108
 _ZNK17QAccessibleClient15RegistryPrivate14textSelectionsERKNS_16AccessibleObjectE@Base 0+git20130108
 _ZNK17QAccessibleClient15RegistryPrivate16imageDescriptionERKNS_16AccessibleObjectE@Base 0+git20130108
 _ZNK17QAccessibleClient15RegistryPrivate16parentAccessibleERKNS_16AccessibleObjectE@Base 0+git20130108
 _ZNK17QAccessibleClient15RegistryPrivate17localizedRoleNameERKNS_16AccessibleObjectE@Base 0+git20130108
 _ZNK17QAccessibleClient15RegistryPrivate18accessibleFromPathERK7QStringS3_@Base 0+git20130108
 _ZNK17QAccessibleClient15RegistryPrivate19supportedInterfacesERKNS_16AccessibleObjectE@Base 0+git20130108
 _ZNK17QAccessibleClient15RegistryPrivate19topLevelAccessiblesEv@Base 0+git20130108
 _ZNK17QAccessibleClient15RegistryPrivate21accessibleFromContextEv@Base 0+git20130108
 _ZNK17QAccessibleClient15RegistryPrivate21isScreenReaderEnabledEv@Base 0+git20130108
 _ZNK17QAccessibleClient15RegistryPrivate21minimumValueIncrementERKNS_16AccessibleObjectE@Base 0+git20130108
 _ZNK17QAccessibleClient15RegistryPrivate23accessibleFromReferenceERKNS_19QSpiObjectReferenceE@Base 0+git20130108
 _ZNK17QAccessibleClient15RegistryPrivate4nameERKNS_16AccessibleObjectE@Base 0+git20130108
 _ZNK17QAccessibleClient15RegistryPrivate4roleERKNS_16AccessibleObjectE@Base 0+git20130108
 _ZNK17QAccessibleClient15RegistryPrivate4textERKNS_16AccessibleObjectEii@Base 0+git20130108
 _ZNK17QAccessibleClient15RegistryPrivate5alphaERKNS_16AccessibleObjectE@Base 0+git20130108
 _ZNK17QAccessibleClient15RegistryPrivate5appIdERKNS_16AccessibleObjectE@Base 0+git20130108
 _ZNK17QAccessibleClient15RegistryPrivate5childERKNS_16AccessibleObjectEi@Base 0+git20130108
 _ZNK17QAccessibleClient15RegistryPrivate5layerERKNS_16AccessibleObjectE@Base 0+git20130108
 _ZNK17QAccessibleClient15RegistryPrivate5stateERKNS_16AccessibleObjectE@Base 0+git20130108
 _ZNK17QAccessibleClient15RegistryPrivate7fromUrlERK4QUrl@Base 0+git20130108
 _ZNK17QAccessibleClient15RegistryPrivate8childrenERKNS_16AccessibleObjectE@Base 0+git20130108
 _ZNK17QAccessibleClient15RegistryPrivate8roleNameERKNS_16AccessibleObjectE@Base 0+git20130108
 _ZNK17QAccessibleClient15RegistryPrivate9appLocaleERKNS_16AccessibleObjectEj@Base 0+git20130108
 _ZNK17QAccessibleClient15RegistryPrivate9imageRectERKNS_16AccessibleObjectE@Base 0+git20130108
 _ZNK17QAccessibleClient15RegistryPrivate9isEnabledEv@Base 0+git20130108
 _ZNK17QAccessibleClient15RegistryPrivate9mdiZOrderERKNS_16AccessibleObjectE@Base 0+git20130108
 _ZNK17QAccessibleClient15RegistryPrivate9selectionERKNS_16AccessibleObjectE@Base 0+git20130108
 _ZNK17QAccessibleClient16AccessibleObject10appVersionEv@Base 0+git20130108
 _ZNK17QAccessibleClient16AccessibleObject10childCountEv@Base 0+git20130108
 _ZNK17QAccessibleClient16AccessibleObject10focusPointEv@Base 0+git20130108
 _ZNK17QAccessibleClient16AccessibleObject10hasToolTipEv@Base 0+git20130108
 _ZNK17QAccessibleClient16AccessibleObject10isEditableEv@Base 0+git20130108
 _ZNK17QAccessibleClient16AccessibleObject10isExpandedEv@Base 0+git20130108
 _ZNK17QAccessibleClient16AccessibleObject10isSelectedEv@Base 0+git20130108
 _ZNK17QAccessibleClient16AccessibleObject11applicationEv@Base 0+git20130108
 _ZNK17QAccessibleClient16AccessibleObject11caretOffsetEv@Base 0+git20130108
 _ZNK17QAccessibleClient16AccessibleObject11descriptionEv@Base 0+git20130108
 _ZNK17QAccessibleClient16AccessibleObject11imageLocaleEv@Base 0+git20130108
 _ZNK17QAccessibleClient16AccessibleObject11isCheckableEv@Base 0+git20130108
 _ZNK17QAccessibleClient16AccessibleObject11isFocusableEv@Base 0+git20130108
 _ZNK17QAccessibleClient16AccessibleObject11isMultiLineEv@Base 0+git20130108
 _ZNK17QAccessibleClient16AccessibleObject11isSensitiveEv@Base 0+git20130108
 _ZNK17QAccessibleClient16AccessibleObject12boundingRectEv@Base 0+git20130108
 _ZNK17QAccessibleClient16AccessibleObject12currentValueEv@Base 0+git20130108
 _ZNK17QAccessibleClient16AccessibleObject12isExpandableEv@Base 0+git20130108
 _ZNK17QAccessibleClient16AccessibleObject12isSelectableEv@Base 0+git20130108
 _ZNK17QAccessibleClient16AccessibleObject12isSingleLineEv@Base 0+git20130108
 _ZNK17QAccessibleClient16AccessibleObject12maximumValueEv@Base 0+git20130108
 _ZNK17QAccessibleClient16AccessibleObject12minimumValueEv@Base 0+git20130108
 _ZNK17QAccessibleClient16AccessibleObject13appBusAddressEv@Base 0+git20130108
 _ZNK17QAccessibleClient16AccessibleObject13characterRectEi@Base 0+git20130108
 _ZNK17QAccessibleClient16AccessibleObject13indexInParentEv@Base 0+git20130108
 _ZNK17QAccessibleClient16AccessibleObject14appToolkitNameEv@Base 0+git20130108
 _ZNK17QAccessibleClient16AccessibleObject14characterCountEv@Base 0+git20130108
 _ZNK17QAccessibleClient16AccessibleObject14textSelectionsEv@Base 0+git20130108
 _ZNK17QAccessibleClient16AccessibleObject16imageDescriptionEv@Base 0+git20130108
 _ZNK17QAccessibleClient16AccessibleObject17hasSelectableTextEv@Base 0+git20130108
 _ZNK17QAccessibleClient16AccessibleObject17localizedRoleNameEv@Base 0+git20130108
 _ZNK17QAccessibleClient16AccessibleObject19supportedInterfacesEv@Base 0+git20130108
 _ZNK17QAccessibleClient16AccessibleObject21minimumValueIncrementEv@Base 0+git20130108
 _ZNK17QAccessibleClient16AccessibleObject22supportsAutocompletionEv@Base 0+git20130108
 _ZNK17QAccessibleClient16AccessibleObject2idEv@Base 0+git20130108
 _ZNK17QAccessibleClient16AccessibleObject3urlEv@Base 0+git20130108
 _ZNK17QAccessibleClient16AccessibleObject4nameEv@Base 0+git20130108
 _ZNK17QAccessibleClient16AccessibleObject4roleEv@Base 0+git20130108
 _ZNK17QAccessibleClient16AccessibleObject4textEii@Base 0+git20130108
 _ZNK17QAccessibleClient16AccessibleObject5alphaEv@Base 0+git20130108
 _ZNK17QAccessibleClient16AccessibleObject5appIdEv@Base 0+git20130108
 _ZNK17QAccessibleClient16AccessibleObject5childEi@Base 0+git20130108
 _ZNK17QAccessibleClient16AccessibleObject5layerEv@Base 0+git20130108
 _ZNK17QAccessibleClient16AccessibleObject6parentEv@Base 0+git20130108
 _ZNK17QAccessibleClient16AccessibleObject7actionsEv@Base 0+git20130108
 _ZNK17QAccessibleClient16AccessibleObject7isValidEv@Base 0+git20130108
 _ZNK17QAccessibleClient16AccessibleObject8childrenERK5QListINS0_4RoleEE@Base 0+git20130108
 _ZNK17QAccessibleClient16AccessibleObject8childrenEv@Base 0+git20130108
 _ZNK17QAccessibleClient16AccessibleObject8isActiveEv@Base 0+git20130108
 _ZNK17QAccessibleClient16AccessibleObject8roleNameEv@Base 0+git20130108
 _ZNK17QAccessibleClient16AccessibleObject9appLocaleENS0_10LocaleTypeE@Base 0+git20130108
 _ZNK17QAccessibleClient16AccessibleObject9imageRectEv@Base 0+git20130108
 _ZNK17QAccessibleClient16AccessibleObject9isCheckedEv@Base 0+git20130108
 _ZNK17QAccessibleClient16AccessibleObject9isDefaultEv@Base 0+git20130108
 _ZNK17QAccessibleClient16AccessibleObject9isDefunctEv@Base 0+git20130108
 _ZNK17QAccessibleClient16AccessibleObject9isEnabledEv@Base 0+git20130108
 _ZNK17QAccessibleClient16AccessibleObject9isFocusedEv@Base 0+git20130108
 _ZNK17QAccessibleClient16AccessibleObject9isVisibleEv@Base 0+git20130108
 _ZNK17QAccessibleClient16AccessibleObject9mdiZOrderEv@Base 0+git20130108
 _ZNK17QAccessibleClient16AccessibleObject9selectionEv@Base 0+git20130108
 _ZNK17QAccessibleClient16AccessibleObjecteqERKS0_@Base 0+git20130108
 _ZNK17QAccessibleClient17CacheWeakStrategy3getERK7QString@Base 0+git20130108
 _ZNK17QAccessibleClient17CacheWeakStrategy3idsEv@Base 0+git20130108
 _ZNK17QAccessibleClient19CacheStrongStrategy3getERK7QString@Base 0+git20130108
 _ZNK17QAccessibleClient19CacheStrongStrategy3idsEv@Base 0+git20130108
 _ZNK17QAccessibleClient23AccessibleObjectPrivateeqERKS0_@Base 0+git20130108
 _ZNK17QAccessibleClient8Registry10metaObjectEv@Base 0+git20130108
 _ZNK17QAccessibleClient8Registry12applicationsEv@Base 0+git20130108
 _ZNK17QAccessibleClient8Registry17accessibleFromUrlERK4QUrl@Base 0+git20130108
 _ZNK17QAccessibleClient8Registry17clientCacheObjectERK7QString@Base 0+git20130108
 _ZNK17QAccessibleClient8Registry18clientCacheObjectsEv@Base 0+git20130108
 _ZNK17QAccessibleClient8Registry21isScreenReaderEnabledEv@Base 0+git20130108
 _ZNK17QAccessibleClient8Registry23subscribeEventListenersERK6QFlagsINS0_13EventListenerEE@Base 0+git20130108
 _ZNK17QAccessibleClient8Registry24subscribedEventListenersEv@Base 0+git20130108
 _ZNK17QAccessibleClient8Registry9cacheTypeEv@Base 0+git20130108
 _ZNK17QAccessibleClient8Registry9isEnabledEv@Base 0+git20130108
 (optional=templinst)_ZNK5QHashI7QString12QWeakPointerIN17QAccessibleClient23AccessibleObjectPrivateEEE4keysEv@Base 0.1.1
 (optional=templinst)_ZNK5QHashI7QString12QWeakPointerIN17QAccessibleClient23AccessibleObjectPrivateEEE8findNodeERKS0_Pj@Base 0+git20140203
 (optional=templinst)_ZNK5QHashI7QString14QSharedPointerIN17QAccessibleClient23AccessibleObjectPrivateEEE8findNodeERKS0_Pj@Base 0+git20140203
 (optional=templinst)_ZNK5QHashI7QStringN17QAccessibleClient16AccessibleObject9InterfaceEE8findNodeERKS0_Pj@Base 0+git20130108
 _ZTI12QDBusContext@Base 0+git20130108
 _ZTIN15QtSharedPointer20ExternalRefCountDataE@Base 0+git20130108
 _ZTIN17QAccessibleClient11ObjectCacheE@Base 0+git20140203
 _ZTIN17QAccessibleClient14DBusConnectionE@Base 0+git20130108
 _ZTIN17QAccessibleClient15RegistryPrivateE@Base 0+git20130108
 _ZTIN17QAccessibleClient17CacheWeakStrategyE@Base 0+git20130108
 _ZTIN17QAccessibleClient19CacheStrongStrategyE@Base 0+git20130108
 _ZTIN17QAccessibleClient8RegistryE@Base 0+git20130108
 _ZTS12QDBusContext@Base 0+git20130108
 _ZTSN15QtSharedPointer20ExternalRefCountDataE@Base 0+git20130108
 _ZTSN17QAccessibleClient11ObjectCacheE@Base 0+git20140203
 _ZTSN17QAccessibleClient14DBusConnectionE@Base 0+git20130108
 _ZTSN17QAccessibleClient15RegistryPrivateE@Base 0+git20130108
 _ZTSN17QAccessibleClient17CacheWeakStrategyE@Base 0+git20130108
 _ZTSN17QAccessibleClient19CacheStrongStrategyE@Base 0+git20130108
 _ZTSN17QAccessibleClient8RegistryE@Base 0+git20130108
 _ZTVN15QtSharedPointer20ExternalRefCountDataE@Base 0+git20130108
 _ZTVN17QAccessibleClient11ObjectCacheE@Base 0+git20140203
 _ZTVN17QAccessibleClient14DBusConnectionE@Base 0+git20130108
 _ZTVN17QAccessibleClient15RegistryPrivateE@Base 0+git20130108
 _ZTVN17QAccessibleClient17CacheWeakStrategyE@Base 0+git20130108
 _ZTVN17QAccessibleClient19CacheStrongStrategyE@Base 0+git20130108
 _ZTVN17QAccessibleClient8RegistryE@Base 0+git20130108
 (optional=templinst)_ZZN11QMetaTypeIdI12QDBusVariantE14qt_metatype_idEvE11metatype_id@Base 0+git20130108
 (optional=templinst)_ZZN11QMetaTypeIdI13QDBusArgumentE14qt_metatype_idEvE11metatype_id@Base 0+git20130108
 (optional=templinst)_ZZN11QMetaTypeIdI5QListIN17QAccessibleClient10QSpiActionEEE14qt_metatype_idEvE11metatype_id@Base 0+git20130108
 (optional=templinst)_ZZN11QMetaTypeIdI5QListIN17QAccessibleClient19QSpiObjectReferenceEEE14qt_metatype_idEvE11metatype_id@Base 0+git20130108
 (optional=templinst)_ZZN11QMetaTypeIdI5QListIjEE14qt_metatype_idEvE11metatype_id@Base 0+git20130108
 (optional=templinst)_ZZN11QMetaTypeIdIN17QAccessibleClient10QSpiActionEE14qt_metatype_idEvE11metatype_id@Base 0+git20130108
 (optional=templinst)_ZZN11QMetaTypeIdIN17QAccessibleClient19QSpiObjectReferenceEE14qt_metatype_idEvE11metatype_id@Base 0+git20130108
